target datalayout = "e-m:e-p270:32:32-p271:32:32-p272:64:64-i64:64-i128:128-f80:128-n8:16:32:64-S128"
target triple = "x86_64-pc-linux-gnu"

%struct.GetByteContext = type { ptr, ptr, ptr }
%struct.RangeCoder = type { i32, i32, i32 }

; Function Attrs: alwaysinline nounwind uwtable
define internal i32 @bytestream_get_byte(ptr noundef %0) #4 {
  %2 = alloca ptr, align 8
  store ptr %0, ptr %2, align 8, !tbaa !88
  %3 = load ptr, ptr %2, align 8, !tbaa !88
  %4 = load ptr, ptr %3, align 8, !tbaa !67
  %5 = getelementptr inbounds i8, ptr %4, i64 1
  store ptr %5, ptr %3, align 8, !tbaa !67
  %6 = load ptr, ptr %2, align 8, !tbaa !88
  %7 = load ptr, ptr %6, align 8, !tbaa !67
  %8 = getelementptr inbounds i8, ptr %7, i64 -1
  %9 = getelementptr inbounds i8, ptr %8, i64 0
  %10 = load i8, ptr %9, align 1, !tbaa !76
  %11 = zext i8 %10 to i32
  ret i32 %11
}

; Function Attrs: alwaysinline nounwind uwtable
define internal i32 @bytestream2_get_byteu(ptr noundef %0) #4 {
  %2 = alloca ptr, align 8
  store ptr %0, ptr %2, align 8, !tbaa !55
  %3 = load ptr, ptr %2, align 8, !tbaa !55
  %4 = getelementptr inbounds nuw %struct.GetByteContext, ptr %3, i32 0, i32 0
  %5 = call i32 @bytestream_get_byte(ptr noundef %4)
  ret i32 %5
}

; Function Attrs: alwaysinline nounwind uwtable
define internal i32 @bytestream2_get_bytes_left(ptr noundef %0) #4 {
  %2 = alloca ptr, align 8
  store ptr %0, ptr %2, align 8, !tbaa !55
  %3 = load ptr, ptr %2, align 8, !tbaa !55
  %4 = getelementptr inbounds nuw %struct.GetByteContext, ptr %3, i32 0, i32 1
  %5 = load ptr, ptr %4, align 8, !tbaa !86
  %6 = load ptr, ptr %2, align 8, !tbaa !55
  %7 = getelementptr inbounds nuw %struct.GetByteContext, ptr %6, i32 0, i32 0
  %8 = load ptr, ptr %7, align 8, !tbaa !87
  %9 = ptrtoint ptr %5 to i64
  %10 = ptrtoint ptr %8 to i64
  %11 = sub i64 %9, %10
  %12 = trunc i64 %11 to i32
  ret i32 %12
}

; Function Attrs: nounwind uwtable
define internal i32 @decode0(ptr noundef %0, ptr noundef %1, i32 noundef %2, i32 noundef %3, i32 noundef %4) #1 {
  %6 = alloca i32, align 4
  %7 = alloca ptr, align 8
  %8 = alloca ptr, align 8
  %9 = alloca i32, align 4
  %10 = alloca i32, align 4
  %11 = alloca i32, align 4
  %12 = alloca i32, align 4
  %13 = alloca i32, align 4
  %14 = alloca i32, align 4
  store ptr %0, ptr %7, align 8, !tbaa !55
  store ptr %1, ptr %8, align 8, !tbaa !80
  store i32 %2, ptr %9, align 4, !tbaa !57
  store i32 %3, ptr %10, align 4, !tbaa !57
  store i32 %4, ptr %11, align 4, !tbaa !57
  call void @llvm.lifetime.start.p0(i64 4, ptr %12) #9
  %15 = load i32, ptr %11, align 4, !tbaa !57
  %16 = icmp eq i32 %15, 0
  br i1 %16, label %17, label %18

17:                                               ; preds = %5
  store i32 -1094995529, ptr %6, align 4
  store i32 1, ptr %13, align 4
  br label %86

18:                                               ; preds = %5
  %19 = load ptr, ptr %8, align 8, !tbaa !80
  %20 = getelementptr inbounds nuw %struct.RangeCoder, ptr %19, i32 0, i32 1
  %21 = load i32, ptr %20, align 4, !tbaa !82
  %22 = zext i32 %21 to i64
  %23 = load i32, ptr %9, align 4, !tbaa !57
  %24 = zext i32 %23 to i64
  %25 = mul i64 %22, %24
  %26 = load i32, ptr %11, align 4, !tbaa !57
  %27 = zext i32 %26 to i64
  %28 = udiv i64 %25, %27
  %29 = trunc i64 %28 to i32
  store i32 %29, ptr %12, align 4, !tbaa !57
  %30 = load i32, ptr %12, align 4, !tbaa !57
  %31 = add i32 %30, 1
  %32 = load ptr, ptr %8, align 8, !tbaa !80
  %33 = getelementptr inbounds nuw %struct.RangeCoder, ptr %32, i32 0, i32 2
  %34 = load i32, ptr %33, align 4, !tbaa !84
  %35 = add i32 %34, %31
  store i32 %35, ptr %33, align 4, !tbaa !84
  %36 = load ptr, ptr %8, align 8, !tbaa !80
  %37 = getelementptr inbounds nuw %struct.RangeCoder, ptr %36, i32 0, i32 1
  %38 = load i32, ptr %37, align 4, !tbaa !82
  %39 = zext i32 %38 to i64
  %40 = load i32, ptr %10, align 4, !tbaa !57
  %41 = load i32, ptr %9, align 4, !tbaa !57
  %42 = add i32 %40, %41
  %43 = zext i32 %42 to i64
  %44 = mul i64 %39, %43
  %45 = load i32, ptr %11, align 4, !tbaa !57
  %46 = zext i32 %45 to i64
  %47 = udiv i64 %44, %46
  %48 = load i32, ptr %12, align 4, !tbaa !57
  %49 = add i32 %48, 1
  %50 = zext i32 %49 to i64
  %51 = sub i64 %47, %50
  %52 = trunc i64 %51 to i32
  %53 = load ptr, ptr %8, align 8, !tbaa !80
  %54 = getelementptr inbounds nuw %struct.RangeCoder, ptr %53, i32 0, i32 1
  store i32 %52, ptr %54, align 4, !tbaa !82
  br label %55

55:                                               ; preds = %66, %18
  %56 = load ptr, ptr %8, align 8, !tbaa !80
  %57 = getelementptr inbounds nuw %struct.RangeCoder, ptr %56, i32 0, i32 1
  %58 = load i32, ptr %57, align 4, !tbaa !82
  %59 = icmp ult i32 %58, 16777216
  br i1 %59, label %60, label %64

60:                                               ; preds = %55
  %61 = load ptr, ptr %7, align 8, !tbaa !55
  %62 = call i32 @bytestream2_get_bytes_left(ptr noundef %61)
  %63 = icmp sgt i32 %62, 0
  br label %64

64:                                               ; preds = %60, %55
  %65 = phi i1 [ false, %55 ], [ %63, %60 ]
  br i1 %65, label %66, label %85

66:                                               ; preds = %64
  call void @llvm.lifetime.start.p0(i64 4, ptr %14) #9
  %67 = load ptr, ptr %7, align 8, !tbaa !55
  %68 = call i32 @bytestream2_get_byteu(ptr noundef %67)
  store i32 %68, ptr %14, align 4, !tbaa !57
  %69 = load ptr, ptr %8, align 8, !tbaa !80
  %70 = getelementptr inbounds nuw %struct.RangeCoder, ptr %69, i32 0, i32 0
  %71 = load i32, ptr %70, align 4, !tbaa !83
  %72 = shl i32 %71, 8
  %73 = load i32, ptr %14, align 4, !tbaa !57
  %74 = or i32 %72, %73
  %75 = load ptr, ptr %8, align 8, !tbaa !80
  %76 = getelementptr inbounds nuw %struct.RangeCoder, ptr %75, i32 0, i32 0
  store i32 %74, ptr %76, align 4, !tbaa !83
  %77 = load ptr, ptr %8, align 8, !tbaa !80
  %78 = getelementptr inbounds nuw %struct.RangeCoder, ptr %77, i32 0, i32 2
  %79 = load i32, ptr %78, align 4, !tbaa !84
  %80 = shl i32 %79, 8
  store i32 %80, ptr %78, align 4, !tbaa !84
  %81 = load ptr, ptr %8, align 8, !tbaa !80
  %82 = getelementptr inbounds nuw %struct.RangeCoder, ptr %81, i32 0, i32 1
  %83 = load i32, ptr %82, align 4, !tbaa !82
  %84 = shl i32 %83, 8
  store i32 %84, ptr %82, align 4, !tbaa !82
  call void @llvm.lifetime.end.p0(i64 4, ptr %14) #9
  br label %55, !llvm.loop !85

85:                                               ; preds = %64
  store i32 0, ptr %6, align 4
  store i32 1, ptr %13, align 4
  br label %86

86:                                               ; preds = %85, %17
  call void @llvm.lifetime.end.p0(i64 4, ptr %12) #9
  %87 = load i32, ptr %6, align 4
  ret i32 %87
}