; Function Attrs: nofree norecurse nosync nounwind memory(read, argmem: readwrite, inaccessiblemem: none) uwtable
define internal range(i32 -1094995529, 1) i32 @decode0(ptr noundef captures(none) %0, ptr noundef captures(none) %1, i32 noundef %2, i32 noundef %3, i32 noundef %4) #5 {
  %6 = icmp eq i32 %4, 0
  br i1 %6, label %.critedge, label %7

7:                                                ; preds = %5
  %8 = getelementptr inbounds nuw i8, ptr %1, i64 4
  %9 = load i32, ptr %8, align 4, !tbaa !80
  %10 = zext i32 %9 to i64
  %11 = zext i32 %2 to i64
  %12 = mul nuw i64 %10, %11
  %13 = zext i32 %4 to i64
  %14 = udiv i64 %12, %13
  %15 = trunc i64 %14 to i32
  %16 = add i32 %15, 1
  %17 = getelementptr inbounds nuw i8, ptr %1, i64 8
  %18 = load i32, ptr %17, align 4, !tbaa !63
  %19 = add i32 %16, %18
  store i32 %19, ptr %17, align 4, !tbaa !63
  %20 = add i32 %3, %2
  %21 = zext i32 %20 to i64
  %22 = mul nuw i64 %10, %21
  %23 = udiv i64 %22, %13
  %24 = trunc i64 %23 to i32
  %25 = sub i32 %24, %16
  store i32 %25, ptr %8, align 4, !tbaa !80
  %26 = icmp ult i32 %25, 16777216
  br i1 %26, label %.lr.ph, label %.critedge

.lr.ph:                                           ; preds = %7
  %27 = getelementptr inbounds nuw i8, ptr %0, i64 8
  %28 = load ptr, ptr %27, align 8, !tbaa !52
  %29 = ptrtoint ptr %28 to i64
  %.promoted = load ptr, ptr %0, align 8, !tbaa !60
  br label %30

30:                                               ; preds = %.lr.ph, %37
  %31 = phi i32 [ %19, %.lr.ph ], [ %44, %37 ]
  %32 = phi ptr [ %.promoted, %.lr.ph ], [ %38, %37 ]
  %storemerge21 = phi i32 [ %25, %.lr.ph ], [ %45, %37 ]
  %33 = ptrtoint ptr %32 to i64
  %34 = sub i64 %29, %33
  %35 = trunc i64 %34 to i32
  %36 = icmp sgt i32 %35, 0
  br i1 %36, label %37, label %.critedge

37:                                               ; preds = %30
  %38 = getelementptr inbounds nuw i8, ptr %32, i64 1
  store ptr %38, ptr %0, align 8, !tbaa !60
  %39 = load i8, ptr %32, align 1, !tbaa !53
  %40 = zext i8 %39 to i32
  %41 = load i32, ptr %1, align 4, !tbaa !62
  %42 = shl i32 %41, 8
  %43 = or disjoint i32 %42, %40
  store i32 %43, ptr %1, align 4, !tbaa !62
  %44 = shl i32 %31, 8
  store i32 %44, ptr %17, align 4, !tbaa !63
  %45 = shl nuw i32 %storemerge21, 8
  store i32 %45, ptr %8, align 4, !tbaa !80
  %46 = icmp ult i32 %storemerge21, 65536
  br i1 %46, label %30, label %.critedge, !llvm.loop !105

.critedge:                                        ; preds = %37, %30, %7, %5
  %.0 = phi i32 [ -1094995529, %5 ], [ 0, %7 ], [ 0, %30 ], [ 0, %37 ]
  ret i32 %.0
}